target datalayout = "e-m:e-p270:32:32-p271:32:32-p272:64:64-i64:64-i128:128-f80:128-n8:16:32:64-S128"
target triple = "x86_64-pc-linux-gnu"

%"struct.faiss::ClusteringParameters" = type { i32, i32, i8, i8, i8, i8, i8, i32, i32, i32, i64 }
%"class.std::vector" = type { %"struct.std::_Vector_base" }
%"struct.std::_Vector_base" = type { %"struct.std::_Vector_base<float, std::allocator<float>>::_Vector_impl" }
%"struct.std::_Vector_base<float, std::allocator<float>>::_Vector_impl" = type { %"struct.std::_Vector_base<float, std::allocator<float>>::_Vector_impl_data" }
%"struct.std::_Vector_base<float, std::allocator<float>>::_Vector_impl_data" = type { ptr, ptr, ptr }
%"struct.faiss::ProductQuantizer" = type { %"struct.faiss::Quantizer", i64, i64, i64, i64, i8, i32, %"struct.faiss::ClusteringParameters", ptr, %"class.std::vector", %"class.std::vector", %"class.std::vector", %"class.std::vector" }
%"struct.faiss::Quantizer" = type { ptr, i64, i64 }

; Function Attrs: mustprogress nounwind uwtable
define linkonce_odr void @_ZNSt12_Destroy_auxILb1EE9__destroyIPfEEvT_S3_(ptr noundef %0, ptr noundef %1) #1 comdat align 2 {
  %3 = alloca ptr, align 8
  %4 = alloca ptr, align 8
  store ptr %0, ptr %3, align 8
  store ptr %1, ptr %4, align 8
  ret void
}

; Function Attrs: mustprogress uwtable
define linkonce_odr void @_ZSt8_DestroyIPfEvT_S1_(ptr noundef %0, ptr noundef %1) #0 comdat {
  %3 = alloca ptr, align 8
  %4 = alloca ptr, align 8
  store ptr %0, ptr %3, align 8
  store ptr %1, ptr %4, align 8
  %5 = load ptr, ptr %3, align 8
  %6 = load ptr, ptr %4, align 8
  call void @_ZNSt12_Destroy_auxILb1EE9__destroyIPfEEvT_S3_(ptr noundef %5, ptr noundef %6)
  ret void
}

; Function Attrs: noreturn nounwind uwtable
define linkonce_odr hidden void @__clang_call_terminate(ptr noundef %0) #3 comdat {
  %2 = call ptr @__cxa_begin_catch(ptr %0) #12
  call void @_ZSt9terminatev() #16
  unreachable
}

; Function Attrs: mustprogress uwtable
define linkonce_odr void @_ZSt8_DestroyIPffEvT_S1_RSaIT0_E(ptr noundef %0, ptr noundef %1, ptr noundef nonnull align 1 dereferenceable(1) %2) #0 comdat {
  %4 = alloca ptr, align 8
  %5 = alloca ptr, align 8
  %6 = alloca ptr, align 8
  store ptr %0, ptr %4, align 8
  store ptr %1, ptr %5, align 8
  store ptr %2, ptr %6, align 8
  %7 = load ptr, ptr %4, align 8
  %8 = load ptr, ptr %5, align 8
  call void @_ZSt8_DestroyIPfEvT_S1_(ptr noundef %7, ptr noundef %8)
  ret void
}

; Function Attrs: mustprogress nounwind uwtable
define linkonce_odr noundef nonnull align 1 dereferenceable(1) ptr @_ZNSt12_Vector_baseIfSaIfEE19_M_get_Tp_allocatorEv(ptr noundef nonnull align 8 dereferenceable(24) %0) #1 comdat align 2 {
  %2 = alloca ptr, align 8
  store ptr %0, ptr %2, align 8
  %3 = load ptr, ptr %2, align 8
  %4 = getelementptr inbounds %"struct.std::_Vector_base", ptr %3, i32 0, i32 0
  ret ptr %4
}

; Function Attrs: mustprogress nounwind uwtable
define linkonce_odr void @_ZNSt6vectorIfSaIfEE15_M_erase_at_endEPf(ptr noundef nonnull align 8 dereferenceable(24) %0, ptr noundef %1) #1 comdat align 2 personality ptr @__gxx_personality_v0 {
  %3 = alloca ptr, align 8
  %4 = alloca ptr, align 8
  %5 = alloca i64, align 8
  store ptr %0, ptr %3, align 8
  store ptr %1, ptr %4, align 8
  %6 = load ptr, ptr %3, align 8
  %7 = getelementptr inbounds %"struct.std::_Vector_base", ptr %6, i32 0, i32 0
  %8 = getelementptr inbounds %"struct.std::_Vector_base<float, std::allocator<float>>::_Vector_impl_data", ptr %7, i32 0, i32 1
  %9 = load ptr, ptr %8, align 8
  %10 = load ptr, ptr %4, align 8
  %11 = ptrtoint ptr %9 to i64
  %12 = ptrtoint ptr %10 to i64
  %13 = sub i64 %11, %12
  %14 = sdiv exact i64 %13, 4
  store i64 %14, ptr %5, align 8
  %15 = load i64, ptr %5, align 8
  %16 = icmp ne i64 %15, 0
  br i1 %16, label %17, label %27

17:                                               ; preds = %2
  %18 = load ptr, ptr %4, align 8
  %19 = getelementptr inbounds %"struct.std::_Vector_base", ptr %6, i32 0, i32 0
  %20 = getelementptr inbounds %"struct.std::_Vector_base<float, std::allocator<float>>::_Vector_impl_data", ptr %19, i32 0, i32 1
  %21 = load ptr, ptr %20, align 8
  %22 = call noundef nonnull align 1 dereferenceable(1) ptr @_ZNSt12_Vector_baseIfSaIfEE19_M_get_Tp_allocatorEv(ptr noundef nonnull align 8 dereferenceable(24) %6) #12
  invoke void @_ZSt8_DestroyIPffEvT_S1_RSaIT0_E(ptr noundef %18, ptr noundef %21, ptr noundef nonnull align 1 dereferenceable(1) %22)
          to label %23 unwind label %28

23:                                               ; preds = %17
  %24 = load ptr, ptr %4, align 8
  %25 = getelementptr inbounds %"struct.std::_Vector_base", ptr %6, i32 0, i32 0
  %26 = getelementptr inbounds %"struct.std::_Vector_base<float, std::allocator<float>>::_Vector_impl_data", ptr %25, i32 0, i32 1
  store ptr %24, ptr %26, align 8
  br label %27

27:                                               ; preds = %23, %2
  ret void

28:                                               ; preds = %17
  %29 = landingpad { ptr, i32 }
          catch ptr null
  %30 = extractvalue { ptr, i32 } %29, 0
  call void @__clang_call_terminate(ptr %30) #16
  unreachable
}

; Function Attrs: mustprogress nounwind uwtable
define linkonce_odr noundef i64 @_ZNKSt6vectorIfSaIfEE4sizeEv(ptr noundef nonnull align 8 dereferenceable(24) %0) #1 comdat align 2 {
  %2 = alloca ptr, align 8
  store ptr %0, ptr %2, align 8
  %3 = load ptr, ptr %2, align 8
  %4 = getelementptr inbounds %"struct.std::_Vector_base", ptr %3, i32 0, i32 0
  %5 = getelementptr inbounds %"struct.std::_Vector_base<float, std::allocator<float>>::_Vector_impl_data", ptr %4, i32 0, i32 1
  %6 = load ptr, ptr %5, align 8
  %7 = getelementptr inbounds %"struct.std::_Vector_base", ptr %3, i32 0, i32 0
  %8 = getelementptr inbounds %"struct.std::_Vector_base<float, std::allocator<float>>::_Vector_impl_data", ptr %7, i32 0, i32 0
  %9 = load ptr, ptr %8, align 8
  %10 = ptrtoint ptr %6 to i64
  %11 = ptrtoint ptr %9 to i64
  %12 = sub i64 %10, %11
  %13 = sdiv exact i64 %12, 4
  ret i64 %13
}

; Function Attrs: mustprogress nounwind uwtable
define linkonce_odr noundef nonnull align 4 dereferenceable(4) ptr @_ZNSt6vectorIfSaIfEEixEm(ptr noundef nonnull align 8 dereferenceable(24) %0, i64 noundef %1) #1 comdat align 2 {
  %3 = alloca ptr, align 8
  %4 = alloca i64, align 8
  store ptr %0, ptr %3, align 8
  store i64 %1, ptr %4, align 8
  %5 = load ptr, ptr %3, align 8
  %6 = getelementptr inbounds %"struct.std::_Vector_base", ptr %5, i32 0, i32 0
  %7 = getelementptr inbounds %"struct.std::_Vector_base<float, std::allocator<float>>::_Vector_impl_data", ptr %6, i32 0, i32 0
  %8 = load ptr, ptr %7, align 8
  %9 = load i64, ptr %4, align 8
  %10 = getelementptr inbounds float, ptr %8, i64 %9
  ret ptr %10
}

; Function Attrs: mustprogress uwtable
define linkonce_odr void @_ZNSt6vectorIfSaIfEE6resizeEm(ptr noundef nonnull align 8 dereferenceable(24) %0, i64 noundef %1) #0 comdat align 2 {
  %3 = alloca ptr, align 8
  %4 = alloca i64, align 8
  store ptr %0, ptr %3, align 8
  store i64 %1, ptr %4, align 8
  %5 = load ptr, ptr %3, align 8
  %6 = load i64, ptr %4, align 8
  %7 = call noundef i64 @_ZNKSt6vectorIfSaIfEE4sizeEv(ptr noundef nonnull align 8 dereferenceable(24) %5) #12
  %8 = icmp ugt i64 %6, %7
  br i1 %8, label %9, label %13

9:                                                ; preds = %2
  %10 = load i64, ptr %4, align 8
  %11 = call noundef i64 @_ZNKSt6vectorIfSaIfEE4sizeEv(ptr noundef nonnull align 8 dereferenceable(24) %5) #12
  %12 = sub i64 %10, %11
  call void @_ZNSt6vectorIfSaIfEE17_M_default_appendEm(ptr noundef nonnull align 8 dereferenceable(24) %5, i64 noundef %12)
  br label %24

13:                                               ; preds = %2
  %14 = load i64, ptr %4, align 8
  %15 = call noundef i64 @_ZNKSt6vectorIfSaIfEE4sizeEv(ptr noundef nonnull align 8 dereferenceable(24) %5) #12
  %16 = icmp ult i64 %14, %15
  br i1 %16, label %17, label %23

17:                                               ; preds = %13
  %18 = getelementptr inbounds %"struct.std::_Vector_base", ptr %5, i32 0, i32 0
  %19 = getelementptr inbounds %"struct.std::_Vector_base<float, std::allocator<float>>::_Vector_impl_data", ptr %18, i32 0, i32 0
  %20 = load ptr, ptr %19, align 8
  %21 = load i64, ptr %4, align 8
  %22 = getelementptr inbounds float, ptr %20, i64 %21
  call void @_ZNSt6vectorIfSaIfEE15_M_erase_at_endEPf(ptr noundef nonnull align 8 dereferenceable(24) %5, ptr noundef %22) #12
  br label %23

23:                                               ; preds = %17, %13
  br label %24

24:                                               ; preds = %23, %9
  ret void
}

; Function Attrs: mustprogress uwtable
define void @_ZN5faiss16ProductQuantizer25sync_transposed_centroidsEv(ptr noundef nonnull align 8 dereferenceable(208) %0) #0 align 2 {
  %2 = alloca ptr, align 8
  %3 = alloca i64, align 8
  %4 = alloca i64, align 8
  %5 = alloca float, align 4
  %6 = alloca i64, align 8
  %7 = alloca float, align 4
  store ptr %0, ptr %2, align 8
  %8 = load ptr, ptr %2, align 8
  %9 = getelementptr inbounds %"struct.faiss::ProductQuantizer", ptr %8, i32 0, i32 10
  %10 = getelementptr inbounds %"struct.faiss::Quantizer", ptr %8, i32 0, i32 1
  %11 = load i64, ptr %10, align 8
  %12 = getelementptr inbounds %"struct.faiss::ProductQuantizer", ptr %8, i32 0, i32 4
  %13 = load i64, ptr %12, align 8
  %14 = mul i64 %11, %13
  call void @_ZNSt6vectorIfSaIfEE6resizeEm(ptr noundef nonnull align 8 dereferenceable(24) %9, i64 noundef %14)
  %15 = getelementptr inbounds %"struct.faiss::ProductQuantizer", ptr %8, i32 0, i32 11
  %16 = getelementptr inbounds %"struct.faiss::ProductQuantizer", ptr %8, i32 0, i32 4
  %17 = load i64, ptr %16, align 8
  %18 = getelementptr inbounds %"struct.faiss::ProductQuantizer", ptr %8, i32 0, i32 1
  %19 = load i64, ptr %18, align 8
  %20 = mul i64 %17, %19
  call void @_ZNSt6vectorIfSaIfEE6resizeEm(ptr noundef nonnull align 8 dereferenceable(24) %15, i64 noundef %20)
  store i64 0, ptr %3, align 8
  br label %21

21:                                               ; preds = %88, %1
  %22 = load i64, ptr %3, align 8
  %23 = getelementptr inbounds %"struct.faiss::ProductQuantizer", ptr %8, i32 0, i32 1
  %24 = load i64, ptr %23, align 8
  %25 = icmp ult i64 %22, %24
  br i1 %25, label %26, label %91

26:                                               ; preds = %21
  store i64 0, ptr %4, align 8
  br label %27

27:                                               ; preds = %84, %26
  %28 = load i64, ptr %4, align 8
  %29 = getelementptr inbounds %"struct.faiss::ProductQuantizer", ptr %8, i32 0, i32 4
  %30 = load i64, ptr %29, align 8
  %31 = icmp ult i64 %28, %30
  br i1 %31, label %32, label %87

32:                                               ; preds = %27
  store float 0.000000e+00, ptr %5, align 4
  store i64 0, ptr %6, align 8
  br label %33

33:                                               ; preds = %71, %32
  %34 = load i64, ptr %6, align 8
  %35 = getelementptr inbounds %"struct.faiss::ProductQuantizer", ptr %8, i32 0, i32 3
  %36 = load i64, ptr %35, align 8
  %37 = icmp ult i64 %34, %36
  br i1 %37, label %38, label %74

38:                                               ; preds = %33
  %39 = getelementptr inbounds %"struct.faiss::ProductQuantizer", ptr %8, i32 0, i32 9
  %40 = load i64, ptr %3, align 8
  %41 = getelementptr inbounds %"struct.faiss::ProductQuantizer", ptr %8, i32 0, i32 4
  %42 = load i64, ptr %41, align 8
  %43 = mul i64 %40, %42
  %44 = load i64, ptr %4, align 8
  %45 = add i64 %43, %44
  %46 = getelementptr inbounds %"struct.faiss::ProductQuantizer", ptr %8, i32 0, i32 3
  %47 = load i64, ptr %46, align 8
  %48 = mul i64 %45, %47
  %49 = load i64, ptr %6, align 8
  %50 = add i64 %48, %49
  %51 = call noundef nonnull align 4 dereferenceable(4) ptr @_ZNSt6vectorIfSaIfEEixEm(ptr noundef nonnull align 8 dereferenceable(24) %39, i64 noundef %50) #12
  %52 = load float, ptr %51, align 4
  store float %52, ptr %7, align 4
  %53 = load float, ptr %7, align 4
  %54 = getelementptr inbounds %"struct.faiss::ProductQuantizer", ptr %8, i32 0, i32 10
  %55 = load i64, ptr %6, align 8
  %56 = getelementptr inbounds %"struct.faiss::ProductQuantizer", ptr %8, i32 0, i32 1
  %57 = load i64, ptr %56, align 8
  %58 = mul i64 %55, %57
  %59 = load i64, ptr %3, align 8
  %60 = add i64 %58, %59
  %61 = getelementptr inbounds %"struct.faiss::ProductQuantizer", ptr %8, i32 0, i32 4
  %62 = load i64, ptr %61, align 8
  %63 = mul i64 %60, %62
  %64 = load i64, ptr %4, align 8
  %65 = add i64 %63, %64
  %66 = call noundef nonnull align 4 dereferenceable(4) ptr @_ZNSt6vectorIfSaIfEEixEm(ptr noundef nonnull align 8 dereferenceable(24) %54, i64 noundef %65) #12
  store float %53, ptr %66, align 4
  %67 = load float, ptr %7, align 4
  %68 = load float, ptr %7, align 4
  %69 = load float, ptr %5, align 4
  %70 = call float @llvm.fmuladd.f32(float %67, float %68, float %69)
  store float %70, ptr %5, align 4
  br label %71

71:                                               ; preds = %38
  %72 = load i64, ptr %6, align 8
  %73 = add i64 %72, 1
  store i64 %73, ptr %6, align 8
  br label %33, !llvm.loop !85

74:                                               ; preds = %33
  %75 = load float, ptr %5, align 4
  %76 = getelementptr inbounds %"struct.faiss::ProductQuantizer", ptr %8, i32 0, i32 11
  %77 = load i64, ptr %3, align 8
  %78 = getelementptr inbounds %"struct.faiss::ProductQuantizer", ptr %8, i32 0, i32 4
  %79 = load i64, ptr %78, align 8
  %80 = mul i64 %77, %79
  %81 = load i64, ptr %4, align 8
  %82 = add i64 %80, %81
  %83 = call noundef nonnull align 4 dereferenceable(4) ptr @_ZNSt6vectorIfSaIfEEixEm(ptr noundef nonnull align 8 dereferenceable(24) %76, i64 noundef %82) #12
  store float %75, ptr %83, align 4
  br label %84

84:                                               ; preds = %74
  %85 = load i64, ptr %4, align 8
  %86 = add i64 %85, 1
  store i64 %86, ptr %4, align 8
  br label %27, !llvm.loop !86

87:                                               ; preds = %27
  br label %88

88:                                               ; preds = %87
  %89 = load i64, ptr %3, align 8
  %90 = add i64 %89, 1
  store i64 %90, ptr %3, align 8
  br label %21, !llvm.loop !87

91:                                               ; preds = %21
  ret void
}