; Function Attrs: mustprogress uwtable
define void @_ZN5faiss16ProductQuantizer25sync_transposed_centroidsEv(ptr noundef nonnull align 8 dereferenceable(208) %0) local_unnamed_addr #0 align 2 personality ptr @__gxx_personality_v0 {
  %2 = getelementptr inbounds i8, ptr %0, i64 136
  %3 = getelementptr inbounds i8, ptr %0, i64 8
  %4 = load i64, ptr %3, align 8
  %5 = getelementptr inbounds i8, ptr %0, i64 48
  %6 = load i64, ptr %5, align 8
  %7 = mul i64 %6, %4
  %8 = getelementptr inbounds i8, ptr %0, i64 144
  %9 = load ptr, ptr %8, align 8
  %10 = load ptr, ptr %2, align 8
  %11 = ptrtoint ptr %9 to i64
  %12 = ptrtoint ptr %10 to i64
  %13 = sub i64 %11, %12
  %14 = ashr exact i64 %13, 2
  %15 = icmp ult i64 %14, %7
  br i1 %15, label %16, label %18

16:                                               ; preds = %1
  %17 = sub i64 %7, %14
  tail call void @_ZNSt6vectorIfSaIfEE17_M_default_appendEm(ptr noundef nonnull align 8 dereferenceable(24) %2, i64 noundef %17)
  %.pre = load i64, ptr %5, align 8
  br label %_ZNSt6vectorIfSaIfEE6resizeEm.exit

18:                                               ; preds = %1
  %19 = icmp ugt i64 %14, %7
  br i1 %19, label %20, label %_ZNSt6vectorIfSaIfEE6resizeEm.exit

20:                                               ; preds = %18
  %21 = getelementptr inbounds float, ptr %10, i64 %7
  %.not.i.i = icmp eq ptr %9, %21
  br i1 %.not.i.i, label %_ZNSt6vectorIfSaIfEE6resizeEm.exit, label %22

22:                                               ; preds = %20
  store ptr %21, ptr %8, align 8
  br label %_ZNSt6vectorIfSaIfEE6resizeEm.exit

_ZNSt6vectorIfSaIfEE6resizeEm.exit:               ; preds = %16, %18, %20, %22
  %23 = phi i64 [ %.pre, %16 ], [ %6, %18 ], [ %6, %20 ], [ %6, %22 ]
  %24 = getelementptr inbounds i8, ptr %0, i64 160
  %25 = getelementptr inbounds i8, ptr %0, i64 24
  %26 = load i64, ptr %25, align 8
  %27 = mul i64 %26, %23
  %28 = getelementptr inbounds i8, ptr %0, i64 168
  %29 = load ptr, ptr %28, align 8
  %30 = load ptr, ptr %24, align 8
  %31 = ptrtoint ptr %29 to i64
  %32 = ptrtoint ptr %30 to i64
  %33 = sub i64 %31, %32
  %34 = ashr exact i64 %33, 2
  %35 = icmp ult i64 %34, %27
  br i1 %35, label %36, label %38

36:                                               ; preds = %_ZNSt6vectorIfSaIfEE6resizeEm.exit
  %37 = sub i64 %27, %34
  tail call void @_ZNSt6vectorIfSaIfEE17_M_default_appendEm(ptr noundef nonnull align 8 dereferenceable(24) %24, i64 noundef %37)
  %.pre36 = load i64, ptr %25, align 8
  br label %_ZNSt6vectorIfSaIfEE6resizeEm.exit24

38:                                               ; preds = %_ZNSt6vectorIfSaIfEE6resizeEm.exit
  %39 = icmp ugt i64 %34, %27
  br i1 %39, label %40, label %_ZNSt6vectorIfSaIfEE6resizeEm.exit24

40:                                               ; preds = %38
  %41 = getelementptr inbounds float, ptr %30, i64 %27
  %.not.i.i23 = icmp eq ptr %29, %41
  br i1 %.not.i.i23, label %_ZNSt6vectorIfSaIfEE6resizeEm.exit24, label %42

42:                                               ; preds = %40
  store ptr %41, ptr %28, align 8
  br label %_ZNSt6vectorIfSaIfEE6resizeEm.exit24

_ZNSt6vectorIfSaIfEE6resizeEm.exit24:             ; preds = %36, %38, %40, %42
  %43 = phi i64 [ %.pre36, %36 ], [ %26, %38 ], [ %26, %40 ], [ %26, %42 ]
  %.not = icmp eq i64 %43, 0
  br i1 %.not, label %._crit_edge31, label %.preheader25.lr.ph

.preheader25.lr.ph:                               ; preds = %_ZNSt6vectorIfSaIfEE6resizeEm.exit24
  %44 = getelementptr inbounds i8, ptr %0, i64 40
  %45 = getelementptr inbounds i8, ptr %0, i64 112
  %46 = load i64, ptr %5, align 8
  %.not32 = icmp eq i64 %46, 0
  br i1 %.not32, label %._crit_edge31, label %.preheader25

.preheader25:                                     ; preds = %.preheader25.lr.ph, %._crit_edge29
  %47 = phi i64 [ %80, %._crit_edge29 ], [ %43, %.preheader25.lr.ph ]
  %48 = phi i64 [ %81, %._crit_edge29 ], [ %46, %.preheader25.lr.ph ]
  %49 = phi i64 [ %82, %._crit_edge29 ], [ 1, %.preheader25.lr.ph ]
  %.030 = phi i64 [ %83, %._crit_edge29 ], [ 0, %.preheader25.lr.ph ]
  %.not33 = icmp eq i64 %49, 0
  br i1 %.not33, label %._crit_edge29, label %.preheader

.preheader:                                       ; preds = %.preheader25, %._crit_edge
  %50 = phi i64 [ %78, %._crit_edge ], [ %48, %.preheader25 ]
  %.02128 = phi i64 [ %77, %._crit_edge ], [ 0, %.preheader25 ]
  %51 = load i64, ptr %44, align 8
  %.not34 = icmp eq i64 %51, 0
  br i1 %.not34, label %._crit_edge, label %.lr.ph

.lr.ph:                                           ; preds = %.preheader, %.lr.ph
  %52 = phi i64 [ %70, %.lr.ph ], [ %51, %.preheader ]
  %.01927 = phi i64 [ %69, %.lr.ph ], [ 0, %.preheader ]
  %.02026 = phi float [ %68, %.lr.ph ], [ 0.000000e+00, %.preheader ]
  %53 = load i64, ptr %5, align 8
  %54 = mul i64 %53, %.030
  %55 = add i64 %54, %.02128
  %56 = mul i64 %55, %52
  %57 = load ptr, ptr %45, align 8
  %58 = getelementptr float, ptr %57, i64 %56
  %59 = getelementptr float, ptr %58, i64 %.01927
  %60 = load float, ptr %59, align 4
  %61 = load i64, ptr %25, align 8
  %62 = mul i64 %61, %.01927
  %63 = add i64 %62, %.030
  %64 = mul i64 %63, %53
  %65 = load ptr, ptr %2, align 8
  %66 = getelementptr float, ptr %65, i64 %64
  %67 = getelementptr float, ptr %66, i64 %.02128
  store float %60, ptr %67, align 4
  %68 = tail call float @llvm.fmuladd.f32(float %60, float %60, float %.02026)
  %69 = add nuw i64 %.01927, 1
  %70 = load i64, ptr %44, align 8
  %71 = icmp ult i64 %69, %70
  br i1 %71, label %.lr.ph, label %._crit_edge.loopexit, !llvm.loop !115

._crit_edge.loopexit:                             ; preds = %.lr.ph
  %.pre37 = load i64, ptr %5, align 8
  br label %._crit_edge

._crit_edge:                                      ; preds = %._crit_edge.loopexit, %.preheader
  %72 = phi i64 [ %50, %.preheader ], [ %.pre37, %._crit_edge.loopexit ]
  %.020.lcssa = phi float [ 0.000000e+00, %.preheader ], [ %68, %._crit_edge.loopexit ]
  %73 = mul i64 %72, %.030
  %74 = load ptr, ptr %24, align 8
  %75 = getelementptr float, ptr %74, i64 %73
  %76 = getelementptr float, ptr %75, i64 %.02128
  store float %.020.lcssa, ptr %76, align 4
  %77 = add nuw i64 %.02128, 1
  %78 = load i64, ptr %5, align 8
  %79 = icmp ult i64 %77, %78
  br i1 %79, label %.preheader, label %._crit_edge29.loopexit, !llvm.loop !116

._crit_edge29.loopexit:                           ; preds = %._crit_edge
  %.pre38 = load i64, ptr %25, align 8
  br label %._crit_edge29

._crit_edge29:                                    ; preds = %._crit_edge29.loopexit, %.preheader25
  %80 = phi i64 [ %.pre38, %._crit_edge29.loopexit ], [ %47, %.preheader25 ]
  %81 = phi i64 [ %78, %._crit_edge29.loopexit ], [ %48, %.preheader25 ]
  %82 = phi i64 [ %78, %._crit_edge29.loopexit ], [ 0, %.preheader25 ]
  %83 = add nuw i64 %.030, 1
  %84 = icmp ult i64 %83, %80
  br i1 %84, label %.preheader25, label %._crit_edge31, !llvm.loop !117

._crit_edge31:                                    ; preds = %._crit_edge29, %.preheader25.lr.ph, %_ZNSt6vectorIfSaIfEE6resizeEm.exit24
  ret void
}